target datalayout = "e-m:e-p270:32:32-p271:32:32-p272:64:64-i64:64-i128:128-f80:128-n8:16:32:64-S128"
target triple = "x86_64-unknown-linux-gnu"

%struct.QTailQLink = type { ptr, ptr }
%struct.BlockDriverState = type { i32, i8, i8, i8, i8, i8, ptr, ptr, ptr, %struct.anon.0, i8, [4096 x i8], [4096 x i8], [4096 x i8], [16 x i8], ptr, [4096 x i8], %struct.BlockLimits, i32, i32, i32, i32, [32 x i8], %union.anon.1, %union.anon.2, %union.anon.3, i32, [16 x %struct.anon.4], ptr, %struct.anon.5, ptr, ptr, %struct.anon.6, ptr, ptr, i32, ptr, i64, i64, %struct.QemuMutex, %struct.anon.7, %struct.Stat64, i32, i32, i32, i32, i32, i32, %struct.QemuMutex, %struct.anon.8, %struct.CoQueue, i8, i32, i8, %struct.CoMutex, ptr, ptr }
%struct.anon.0 = type { ptr }
%struct.BlockLimits = type { i32, i64, i32, i64, i32, i32, i32, i64, i32, i64, i64, i32, i8, i32, i32, i32, i32, i32, i32, i32 }
%union.anon.1 = type { %struct.QTailQLink }
%union.anon.2 = type { %struct.QTailQLink }
%union.anon.3 = type { %struct.QTailQLink }
%struct.anon.4 = type { ptr }
%struct.anon.5 = type { ptr }
%struct.anon.6 = type { ptr }
%struct.anon.7 = type { ptr }
%struct.Stat64 = type { i64 }
%struct.QemuMutex = type { %union.pthread_mutex_t, i8 }
%union.pthread_mutex_t = type { %struct.__pthread_mutex_s }
%struct.__pthread_mutex_s = type { i32, i32, i32, i32, i32, i16, i16, %struct.__pthread_internal_list }
%struct.__pthread_internal_list = type { ptr, ptr }
%struct.anon.8 = type { ptr }
%struct.CoQueue = type { %struct.anon.9 }
%struct.anon.9 = type { ptr, ptr }
%struct.CoMutex = type { i32, ptr, %struct.anon.10, %struct.anon.10, i32, i32, ptr }
%struct.anon.10 = type { ptr }
%struct.BDRVParallelsState = type { %struct.CoMutex, ptr, i32, i8, ptr, i32, ptr, i64, ptr, i32, i64, i64, i64, i32, i32, i32, i32, ptr }
%struct.QEMUIOVector = type { ptr, i32, %union.anon.15 }
%union.anon.15 = type { %struct.anon.16 }
%struct.anon.16 = type { i32, %struct.iovec }
%struct.iovec = type { ptr, i64 }

; Function Attrs: nounwind sspstrong uwtable
define internal i32 @ctz64(i64 noundef %val) #0 {
entry:
  %val.addr = alloca i64, align 8
  store i64 %val, ptr %val.addr, align 8
  %0 = load i64, ptr %val.addr, align 8
  %tobool = icmp ne i64 %0, 0
  br i1 %tobool, label %cond.true, label %cond.false

cond.true:                                        ; preds = %entry
  %1 = load i64, ptr %val.addr, align 8
  %2 = call i64 @llvm.cttz.i64(i64 %1, i1 true)
  %cast = trunc i64 %2 to i32
  br label %cond.end

cond.false:                                       ; preds = %entry
  br label %cond.end

cond.end:                                         ; preds = %cond.false, %cond.true
  %cond = phi i32 [ %cast, %cond.true ], [ 64, %cond.false ]
  ret i32 %cond
}

; Function Attrs: nounwind sspstrong uwtable
define internal void @bitmap_zero(ptr noundef %dst, i64 noundef %nbits) #0 {
entry:
  %dst.addr = alloca ptr, align 8
  %nbits.addr = alloca i64, align 8
  %len = alloca i64, align 8
  store ptr %dst, ptr %dst.addr, align 8
  store i64 %nbits, ptr %nbits.addr, align 8
  %0 = load i64, ptr %nbits.addr, align 8
  %cmp = icmp ule i64 %0, 64
  br i1 %cmp, label %if.then, label %if.else

if.then:                                          ; preds = %entry
  %1 = load ptr, ptr %dst.addr, align 8
  store i64 0, ptr %1, align 8
  br label %if.end

if.else:                                          ; preds = %entry
  %2 = load i64, ptr %nbits.addr, align 8
  %add = add i64 %2, 64
  %sub = sub i64 %add, 1
  %div = udiv i64 %sub, 64
  %mul = mul i64 %div, 8
  store i64 %mul, ptr %len, align 8
  %3 = load ptr, ptr %dst.addr, align 8
  %4 = load i64, ptr %len, align 8
  call void @llvm.memset.p0.i64(ptr align 8 %3, i8 0, i64 %4, i1 false)
  br label %if.end

if.end:                                           ; preds = %if.else, %if.then
  ret void
}

; Function Attrs: nounwind sspstrong uwtable
define internal i32 @bdrv_co_pwrite(ptr noundef %child, i64 noundef %offset, i64 noundef %bytes, ptr noundef %buf, i32 noundef %flags) #0 {
entry:
  %child.addr = alloca ptr, align 8
  %offset.addr = alloca i64, align 8
  %bytes.addr = alloca i64, align 8
  %buf.addr = alloca ptr, align 8
  %flags.addr = alloca i32, align 4
  %qiov = alloca %struct.QEMUIOVector, align 8
  store ptr %child, ptr %child.addr, align 8
  store i64 %offset, ptr %offset.addr, align 8
  store i64 %bytes, ptr %bytes.addr, align 8
  store ptr %buf, ptr %buf.addr, align 8
  store i32 %flags, ptr %flags.addr, align 4
  %iov = getelementptr inbounds %struct.QEMUIOVector, ptr %qiov, i32 0, i32 0
  %0 = getelementptr inbounds %struct.QEMUIOVector, ptr %qiov, i32 0, i32 2
  %local_iov = getelementptr inbounds %struct.anon.16, ptr %0, i32 0, i32 1
  store ptr %local_iov, ptr %iov, align 8
  %niov = getelementptr inbounds %struct.QEMUIOVector, ptr %qiov, i32 0, i32 1
  store i32 1, ptr %niov, align 8
  %1 = getelementptr inbounds %struct.QEMUIOVector, ptr %qiov, i32 0, i32 2
  %nalloc = getelementptr inbounds %struct.anon.16, ptr %1, i32 0, i32 0
  store i32 -1, ptr %nalloc, align 8
  %local_iov1 = getelementptr inbounds %struct.anon.16, ptr %1, i32 0, i32 1
  %iov_base = getelementptr inbounds %struct.iovec, ptr %local_iov1, i32 0, i32 0
  %2 = load ptr, ptr %buf.addr, align 8
  store ptr %2, ptr %iov_base, align 8
  %iov_len = getelementptr inbounds %struct.iovec, ptr %local_iov1, i32 0, i32 1
  %3 = load i64, ptr %bytes.addr, align 8
  store i64 %3, ptr %iov_len, align 8
  br label %do.body

do.body:                                          ; preds = %entry
  br label %do.end

do.end:                                           ; preds = %do.body
  call void @assert_bdrv_graph_readable()
  %4 = load ptr, ptr %child.addr, align 8
  %5 = load i64, ptr %offset.addr, align 8
  %6 = load i64, ptr %bytes.addr, align 8
  %7 = load i32, ptr %flags.addr, align 4
  %call = call i32 @bdrv_co_pwritev(ptr noundef %4, i64 noundef %5, i64 noundef %6, ptr noundef %qiov, i32 noundef %7)
  ret i32 %call
}

; Function Attrs: nounwind sspstrong uwtable
define internal i64 @find_first_bit(ptr noundef %addr, i64 noundef %size) #0 {
entry:
  %retval = alloca i64, align 8
  %addr.addr = alloca ptr, align 8
  %size.addr = alloca i64, align 8
  %result = alloca i64, align 8
  %tmp = alloca i64, align 8
  store ptr %addr, ptr %addr.addr, align 8
  store i64 %size, ptr %size.addr, align 8
  store i64 0, ptr %result, align 8
  br label %for.cond

for.cond:                                         ; preds = %for.inc, %entry
  %0 = load i64, ptr %result, align 8
  %1 = load i64, ptr %size.addr, align 8
  %cmp = icmp ult i64 %0, %1
  br i1 %cmp, label %for.body, label %for.end

for.body:                                         ; preds = %for.cond
  %2 = load ptr, ptr %addr.addr, align 8
  %incdec.ptr = getelementptr i64, ptr %2, i32 1
  store ptr %incdec.ptr, ptr %addr.addr, align 8
  %3 = load i64, ptr %2, align 8
  store i64 %3, ptr %tmp, align 8
  %4 = load i64, ptr %tmp, align 8
  %tobool = icmp ne i64 %4, 0
  br i1 %tobool, label %if.then, label %if.end

if.then:                                          ; preds = %for.body
  %5 = load i64, ptr %tmp, align 8
  %call = call i32 @ctz64(i64 noundef %5)
  %conv = sext i32 %call to i64
  %6 = load i64, ptr %result, align 8
  %add = add i64 %6, %conv
  store i64 %add, ptr %result, align 8
  %7 = load i64, ptr %result, align 8
  %8 = load i64, ptr %size.addr, align 8
  %cmp1 = icmp ult i64 %7, %8
  br i1 %cmp1, label %cond.true, label %cond.false

cond.true:                                        ; preds = %if.then
  %9 = load i64, ptr %result, align 8
  br label %cond.end

cond.false:                                       ; preds = %if.then
  %10 = load i64, ptr %size.addr, align 8
  br label %cond.end

cond.end:                                         ; preds = %cond.false, %cond.true
  %cond = phi i64 [ %9, %cond.true ], [ %10, %cond.false ]
  store i64 %cond, ptr %retval, align 8
  br label %return

if.end:                                           ; preds = %for.body
  br label %for.inc

for.inc:                                          ; preds = %if.end
  %11 = load i64, ptr %result, align 8
  %add3 = add i64 %11, 64
  store i64 %add3, ptr %result, align 8
  br label %for.cond, !llvm.loop !15

for.end:                                          ; preds = %for.cond
  %12 = load i64, ptr %size.addr, align 8
  store i64 %12, ptr %retval, align 8
  br label %return

return:                                           ; preds = %for.end, %cond.end
  %13 = load i64, ptr %retval, align 8
  ret i64 %13
}

; Function Attrs: nounwind sspstrong uwtable
define internal i32 @parallels_co_flush_to_os(ptr noundef %bs) #0 {
entry:
  %retval = alloca i32, align 4
  %bs.addr = alloca ptr, align 8
  %s = alloca ptr, align 8
  %size = alloca i64, align 8
  %bit = alloca i64, align 8
  %off = alloca i32, align 4
  %to_write = alloca i32, align 4
  %ret = alloca i32, align 4
  store ptr %bs, ptr %bs.addr, align 8
  %0 = load ptr, ptr %bs.addr, align 8
  %opaque = getelementptr inbounds %struct.BlockDriverState, ptr %0, i32 0, i32 7
  %1 = load ptr, ptr %opaque, align 8
  store ptr %1, ptr %s, align 8
  %2 = load ptr, ptr %s, align 8
  %header_size = getelementptr inbounds %struct.BDRVParallelsState, ptr %2, i32 0, i32 2
  %3 = load i32, ptr %header_size, align 8
  %4 = load ptr, ptr %s, align 8
  %bat_dirty_block = getelementptr inbounds %struct.BDRVParallelsState, ptr %4, i32 0, i32 5
  %5 = load i32, ptr %bat_dirty_block, align 8
  %add = add i32 %3, %5
  %sub = sub i32 %add, 1
  %6 = load ptr, ptr %s, align 8
  %bat_dirty_block1 = getelementptr inbounds %struct.BDRVParallelsState, ptr %6, i32 0, i32 5
  %7 = load i32, ptr %bat_dirty_block1, align 8
  %div = udiv i32 %sub, %7
  %conv = zext i32 %div to i64
  store i64 %conv, ptr %size, align 8
  %8 = load ptr, ptr %s, align 8
  %lock = getelementptr inbounds %struct.BDRVParallelsState, ptr %8, i32 0, i32 0
  call void @qemu_co_mutex_lock(ptr noundef %lock)
  %9 = load ptr, ptr %s, align 8
  %bat_dirty_bmap = getelementptr inbounds %struct.BDRVParallelsState, ptr %9, i32 0, i32 4
  %10 = load ptr, ptr %bat_dirty_bmap, align 8
  %11 = load i64, ptr %size, align 8
  %call = call i64 @find_first_bit(ptr noundef %10, i64 noundef %11)
  store i64 %call, ptr %bit, align 8
  br label %while.cond

while.cond:                                       ; preds = %if.end20, %entry
  %12 = load i64, ptr %bit, align 8
  %13 = load i64, ptr %size, align 8
  %cmp = icmp ult i64 %12, %13
  br i1 %cmp, label %while.body, label %while.end

while.body:                                       ; preds = %while.cond
  %14 = load i64, ptr %bit, align 8
  %15 = load ptr, ptr %s, align 8
  %bat_dirty_block3 = getelementptr inbounds %struct.BDRVParallelsState, ptr %15, i32 0, i32 5
  %16 = load i32, ptr %bat_dirty_block3, align 8
  %conv4 = zext i32 %16 to i64
  %mul = mul i64 %14, %conv4
  %conv5 = trunc i64 %mul to i32
  store i32 %conv5, ptr %off, align 4
  %17 = load ptr, ptr %s, align 8
  %bat_dirty_block6 = getelementptr inbounds %struct.BDRVParallelsState, ptr %17, i32 0, i32 5
  %18 = load i32, ptr %bat_dirty_block6, align 8
  store i32 %18, ptr %to_write, align 4
  %19 = load i32, ptr %off, align 4
  %20 = load i32, ptr %to_write, align 4
  %add7 = add i32 %19, %20
  %21 = load ptr, ptr %s, align 8
  %header_size8 = getelementptr inbounds %struct.BDRVParallelsState, ptr %21, i32 0, i32 2
  %22 = load i32, ptr %header_size8, align 8
  %cmp9 = icmp ugt i32 %add7, %22
  br i1 %cmp9, label %if.then, label %if.end

if.then:                                          ; preds = %while.body
  %23 = load ptr, ptr %s, align 8
  %header_size11 = getelementptr inbounds %struct.BDRVParallelsState, ptr %23, i32 0, i32 2
  %24 = load i32, ptr %header_size11, align 8
  %25 = load i32, ptr %off, align 4
  %sub12 = sub i32 %24, %25
  store i32 %sub12, ptr %to_write, align 4
  br label %if.end

if.end:                                           ; preds = %if.then, %while.body
  %26 = load ptr, ptr %bs.addr, align 8
  %file = getelementptr inbounds %struct.BlockDriverState, ptr %26, i32 0, i32 31
  %27 = load ptr, ptr %file, align 8
  %28 = load i32, ptr %off, align 4
  %conv13 = zext i32 %28 to i64
  %29 = load i32, ptr %to_write, align 4
  %conv14 = zext i32 %29 to i64
  %30 = load ptr, ptr %s, align 8
  %header = getelementptr inbounds %struct.BDRVParallelsState, ptr %30, i32 0, i32 1
  %31 = load ptr, ptr %header, align 8
  %32 = load i32, ptr %off, align 4
  %idx.ext = zext i32 %32 to i64
  %add.ptr = getelementptr i8, ptr %31, i64 %idx.ext
  %call15 = call i32 @bdrv_co_pwrite(ptr noundef %27, i64 noundef %conv13, i64 noundef %conv14, ptr noundef %add.ptr, i32 noundef 0)
  store i32 %call15, ptr %ret, align 4
  %33 = load i32, ptr %ret, align 4
  %cmp16 = icmp slt i32 %33, 0
  br i1 %cmp16, label %if.then18, label %if.end20

if.then18:                                        ; preds = %if.end
  %34 = load ptr, ptr %s, align 8
  %lock19 = getelementptr inbounds %struct.BDRVParallelsState, ptr %34, i32 0, i32 0
  call void @qemu_co_mutex_unlock(ptr noundef %lock19)
  %35 = load i32, ptr %ret, align 4
  store i32 %35, ptr %retval, align 4
  br label %return

if.end20:                                         ; preds = %if.end
  %36 = load ptr, ptr %s, align 8
  %bat_dirty_bmap21 = getelementptr inbounds %struct.BDRVParallelsState, ptr %36, i32 0, i32 4
  %37 = load ptr, ptr %bat_dirty_bmap21, align 8
  %38 = load i64, ptr %size, align 8
  %39 = load i64, ptr %bit, align 8
  %add22 = add i64 %39, 1
  %call23 = call i64 @find_next_bit(ptr noundef %37, i64 noundef %38, i64 noundef %add22)
  store i64 %call23, ptr %bit, align 8
  br label %while.cond, !llvm.loop !10

while.end:                                        ; preds = %while.cond
  %40 = load ptr, ptr %s, align 8
  %bat_dirty_bmap24 = getelementptr inbounds %struct.BDRVParallelsState, ptr %40, i32 0, i32 4
  %41 = load ptr, ptr %bat_dirty_bmap24, align 8
  %42 = load i64, ptr %size, align 8
  call void @bitmap_zero(ptr noundef %41, i64 noundef %42)
  %43 = load ptr, ptr %s, align 8
  %lock25 = getelementptr inbounds %struct.BDRVParallelsState, ptr %43, i32 0, i32 0
  call void @qemu_co_mutex_unlock(ptr noundef %lock25)
  store i32 0, ptr %retval, align 4
  br label %return

return:                                           ; preds = %while.end, %if.then18
  %44 = load i32, ptr %retval, align 4
  ret i32 %44
}