; Function Attrs: nounwind sspstrong uwtable
define internal range(i32 -2147483648, 1) i32 @parallels_co_flush_to_os(ptr noundef readonly captures(none) %bs) #0 {
entry:
  %qiov.i = alloca %struct.QEMUIOVector, align 8
  %opaque = getelementptr inbounds nuw i8, ptr %bs, i64 24
  %0 = load ptr, ptr %opaque, align 8
  %header_size = getelementptr inbounds nuw i8, ptr %0, i64 56
  %1 = load i32, ptr %header_size, align 8
  %bat_dirty_block = getelementptr inbounds nuw i8, ptr %0, i64 72
  %2 = load i32, ptr %bat_dirty_block, align 8
  %add = add i32 %1, -1
  %sub = add i32 %add, %2
  %div = udiv i32 %sub, %2
  %conv = zext i32 %div to i64
  tail call void @qemu_co_mutex_lock(ptr noundef %0) #16
  %bat_dirty_bmap = getelementptr inbounds nuw i8, ptr %0, i64 64
  %3 = load ptr, ptr %bat_dirty_bmap, align 8
  %cmp10.not.i = icmp ugt i32 %2, %sub
  br i1 %cmp10.not.i, label %find_first_bit.exit, label %for.body.i

for.body.i:                                       ; preds = %entry, %for.inc.i
  %result.012.i = phi i64 [ %add3.i, %for.inc.i ], [ 0, %entry ]
  %addr.addr.011.i = phi ptr [ %incdec.ptr.i, %for.inc.i ], [ %3, %entry ]
  %4 = load i64, ptr %addr.addr.011.i, align 8
  %tobool.not.i = icmp eq i64 %4, 0
  br i1 %tobool.not.i, label %for.inc.i, label %if.then.i

if.then.i:                                        ; preds = %for.body.i
  %5 = tail call range(i64 0, 65) i64 @llvm.cttz.i64(i64 range(i64 1, 0) %4, i1 true)
  %add.i = or disjoint i64 %5, %result.012.i
  %cond.i = tail call i64 @llvm.umin.i64(i64 %add.i, i64 range(i64 0, 4294967296) %conv)
  br label %find_first_bit.exit

for.inc.i:                                        ; preds = %for.body.i
  %incdec.ptr.i = getelementptr i8, ptr %addr.addr.011.i, i64 8
  %add3.i = add nuw nsw i64 %result.012.i, 64
  %cmp.i = icmp samesign ult i64 %add3.i, %conv
  br i1 %cmp.i, label %for.body.i, label %while.end, !llvm.loop !11

find_first_bit.exit:                              ; preds = %entry, %if.then.i
  %retval.0.i = phi i64 [ %cond.i, %if.then.i ], [ 0, %entry ]
  %cmp29 = icmp ult i64 %retval.0.i, %conv
  br i1 %cmp29, label %while.body.lr.ph, label %while.end

while.body.lr.ph:                                 ; preds = %find_first_bit.exit
  %file = getelementptr inbounds nuw i8, ptr %bs, i64 16840
  %header = getelementptr inbounds nuw i8, ptr %0, i64 48
  %6 = getelementptr inbounds nuw i8, ptr %qiov.i, i64 16
  %local_iov.i = getelementptr inbounds nuw i8, ptr %qiov.i, i64 24
  %niov.i = getelementptr inbounds nuw i8, ptr %qiov.i, i64 8
  %iov_len.i = getelementptr inbounds nuw i8, ptr %qiov.i, i64 32
  br label %while.body

while.body:                                       ; preds = %while.body.lr.ph, %if.end20
  %bit.030 = phi i64 [ %retval.0.i, %while.body.lr.ph ], [ %call23, %if.end20 ]
  %7 = load i32, ptr %bat_dirty_block, align 8
  %8 = trunc i64 %bit.030 to i32
  %conv5 = mul i32 %7, %8
  %add7 = add i32 %conv5, %7
  %9 = load i32, ptr %header_size, align 8
  %cmp9 = icmp ugt i32 %add7, %9
  %sub12 = sub i32 %9, %conv5
  %spec.select = select i1 %cmp9, i32 %sub12, i32 %7
  %10 = load ptr, ptr %file, align 8
  %conv13 = zext i32 %conv5 to i64
  %conv14 = zext i32 %spec.select to i64
  %11 = load ptr, ptr %header, align 8
  %add.ptr = getelementptr i8, ptr %11, i64 %conv13
  call void @llvm.lifetime.start.p0(i64 40, ptr nonnull %qiov.i)
  store ptr %local_iov.i, ptr %qiov.i, align 8
  store i32 1, ptr %niov.i, align 8
  store i32 -1, ptr %6, align 8
  store ptr %add.ptr, ptr %local_iov.i, align 8
  store i64 %conv14, ptr %iov_len.i, align 8
  call void @assert_bdrv_graph_readable() #16
  %call.i = call i32 @bdrv_co_pwritev(ptr noundef %10, i64 noundef %conv13, i64 noundef %conv14, ptr noundef nonnull %qiov.i, i32 noundef 0) #16
  call void @llvm.lifetime.end.p0(i64 40, ptr nonnull %qiov.i)
  %cmp16 = icmp slt i32 %call.i, 0
  br i1 %cmp16, label %return, label %if.end20

if.end20:                                         ; preds = %while.body
  %12 = load ptr, ptr %bat_dirty_bmap, align 8
  %add22 = add nuw nsw i64 %bit.030, 1
  %call23 = call i64 @find_next_bit(ptr noundef %12, i64 noundef %conv, i64 noundef %add22) #16
  %cmp = icmp ult i64 %call23, %conv
  br i1 %cmp, label %while.body, label %while.end.loopexit, !llvm.loop !12

while.end.loopexit:                               ; preds = %if.end20
  %.pre = load ptr, ptr %bat_dirty_bmap, align 8
  br label %while.end

while.end:                                        ; preds = %for.inc.i, %while.end.loopexit, %find_first_bit.exit
  %13 = phi ptr [ %.pre, %while.end.loopexit ], [ %3, %find_first_bit.exit ], [ %3, %for.inc.i ]
  %cmp.i25 = icmp ult i32 %div, 65
  br i1 %cmp.i25, label %if.then.i26, label %if.else.i

if.then.i26:                                      ; preds = %while.end
  store i64 0, ptr %13, align 8
  br label %return

if.else.i:                                        ; preds = %while.end
  %sub.i = add nuw nsw i64 %conv, 63
  %14 = lshr i64 %sub.i, 3
  %mul.i = and i64 %14, 1073741816
  call void @llvm.memset.p0.i64(ptr align 8 %13, i8 0, i64 %mul.i, i1 false)
  br label %return

return:                                           ; preds = %while.body, %if.else.i, %if.then.i26
  %retval.0 = phi i32 [ 0, %if.then.i26 ], [ 0, %if.else.i ], [ %call.i, %while.body ]
  call void @qemu_co_mutex_unlock(ptr noundef nonnull %0) #16
  ret i32 %retval.0
}